; Function Attrs: mustprogress uwtable
define void @_ZN4base15SparseHistogram8AddCountEii(ptr noundef nonnull align 8 dereferenceable(112) %0, i32 noundef %1, i32 noundef %2) unnamed_addr #0 align 2 personality ptr @__gxx_personality_v0 {
  %4 = icmp slt i32 %2, 1
  br i1 %4, label %16, label %5

5:                                                ; preds = %3
  %6 = getelementptr inbounds nuw i8, ptr %0, i64 48
  tail call void @_ZN4base8internal8LockImpl4LockEv(ptr noundef nonnull align 8 dereferenceable(40) %6)
  %7 = getelementptr inbounds nuw i8, ptr %0, i64 96
  %8 = load ptr, ptr %7, align 8, !tbaa !20
  %9 = load ptr, ptr %8, align 8, !tbaa !16
  %10 = getelementptr inbounds nuw i8, ptr %9, i64 16
  %11 = load ptr, ptr %10, align 8
  invoke void %11(ptr noundef nonnull align 8 dereferenceable(40) %8, i32 noundef %1, i32 noundef %2)
          to label %12 unwind label %17

12:                                               ; preds = %5
  invoke void @_ZN4base8internal8LockImpl6UnlockEv(ptr noundef nonnull align 8 dereferenceable(40) %6)
          to label %_ZN4base8AutoLockD2Ev.exit unwind label %13

13:                                               ; preds = %12
  %14 = landingpad { ptr, i32 }
          catch ptr null
  %15 = extractvalue { ptr, i32 } %14, 0
  tail call void @__clang_call_terminate(ptr %15) #17
  unreachable

_ZN4base8AutoLockD2Ev.exit:                       ; preds = %12
  tail call void @_ZNK4base13HistogramBase18FindAndRunCallbackEi(ptr noundef nonnull align 8 dereferenceable(44) %0, i32 noundef %1)
  br label %16

16:                                               ; preds = %3, %_ZN4base8AutoLockD2Ev.exit
  ret void

17:                                               ; preds = %5
  %18 = landingpad { ptr, i32 }
          cleanup
  invoke void @_ZN4base8internal8LockImpl6UnlockEv(ptr noundef nonnull align 8 dereferenceable(40) %6)
          to label %_ZN4base8AutoLockD2Ev.exit6 unwind label %19

19:                                               ; preds = %17
  %20 = landingpad { ptr, i32 }
          catch ptr null
  %21 = extractvalue { ptr, i32 } %20, 0
  tail call void @__clang_call_terminate(ptr %21) #17
  unreachable

_ZN4base8AutoLockD2Ev.exit6:                      ; preds = %17
  resume { ptr, i32 } %18
}